target datalayout = "e-m:e-p270:32:32-p271:32:32-p272:64:64-i64:64-i128:128-f80:128-n8:16:32:64-S128"
target triple = "x86_64-unknown-linux-gnu"

%"class.QuantLib::VegaBumpCluster" = type { i64, i64, i64, i64, i64, i64 }

; Function Attrs: mustprogress nounwind uwtable
define noundef zeroext i1 @_ZNK8QuantLib15VegaBumpCluster13doesIntersectERKS0_(ptr noundef nonnull align 8 dereferenceable(48) %this, ptr noundef nonnull align 8 dereferenceable(48) %comparee) #4 align 2 {
entry:
  %retval = alloca i1, align 1
  %this.addr = alloca ptr, align 8
  %comparee.addr = alloca ptr, align 8
  store ptr %this, ptr %this.addr, align 8, !tbaa !3
  store ptr %comparee, ptr %comparee.addr, align 8, !tbaa !3
  %this1 = load ptr, ptr %this.addr, align 8
  %factorEnd_ = getelementptr inbounds nuw %"class.QuantLib::VegaBumpCluster", ptr %this1, i32 0, i32 1
  %0 = load i64, ptr %factorEnd_, align 8, !tbaa !11
  %1 = load ptr, ptr %comparee.addr, align 8, !tbaa !3
  %factorBegin_ = getelementptr inbounds nuw %"class.QuantLib::VegaBumpCluster", ptr %1, i32 0, i32 0
  %2 = load i64, ptr %factorBegin_, align 8, !tbaa !9
  %cmp = icmp ule i64 %0, %2
  br i1 %cmp, label %if.then, label %if.end

if.then:                                          ; preds = %entry
  store i1 false, ptr %retval, align 1
  br label %return

if.end:                                           ; preds = %entry
  %rateEnd_ = getelementptr inbounds nuw %"class.QuantLib::VegaBumpCluster", ptr %this1, i32 0, i32 3
  %3 = load i64, ptr %rateEnd_, align 8, !tbaa !13
  %4 = load ptr, ptr %comparee.addr, align 8, !tbaa !3
  %rateBegin_ = getelementptr inbounds nuw %"class.QuantLib::VegaBumpCluster", ptr %4, i32 0, i32 2
  %5 = load i64, ptr %rateBegin_, align 8, !tbaa !12
  %cmp2 = icmp ule i64 %3, %5
  br i1 %cmp2, label %if.then3, label %if.end4

if.then3:                                         ; preds = %if.end
  store i1 false, ptr %retval, align 1
  br label %return

if.end4:                                          ; preds = %if.end
  %stepEnd_ = getelementptr inbounds nuw %"class.QuantLib::VegaBumpCluster", ptr %this1, i32 0, i32 5
  %6 = load i64, ptr %stepEnd_, align 8, !tbaa !15
  %7 = load ptr, ptr %comparee.addr, align 8, !tbaa !3
  %stepBegin_ = getelementptr inbounds nuw %"class.QuantLib::VegaBumpCluster", ptr %7, i32 0, i32 4
  %8 = load i64, ptr %stepBegin_, align 8, !tbaa !14
  %cmp5 = icmp ule i64 %6, %8
  br i1 %cmp5, label %if.then6, label %if.end7

if.then6:                                         ; preds = %if.end4
  store i1 false, ptr %retval, align 1
  br label %return

if.end7:                                          ; preds = %if.end4
  %9 = load ptr, ptr %comparee.addr, align 8, !tbaa !3
  %factorEnd_8 = getelementptr inbounds nuw %"class.QuantLib::VegaBumpCluster", ptr %9, i32 0, i32 1
  %10 = load i64, ptr %factorEnd_8, align 8, !tbaa !11
  %factorBegin_9 = getelementptr inbounds nuw %"class.QuantLib::VegaBumpCluster", ptr %this1, i32 0, i32 0
  %11 = load i64, ptr %factorBegin_9, align 8, !tbaa !9
  %cmp10 = icmp ule i64 %10, %11
  br i1 %cmp10, label %if.then11, label %if.end12

if.then11:                                        ; preds = %if.end7
  store i1 false, ptr %retval, align 1
  br label %return

if.end12:                                         ; preds = %if.end7
  %12 = load ptr, ptr %comparee.addr, align 8, !tbaa !3
  %rateEnd_13 = getelementptr inbounds nuw %"class.QuantLib::VegaBumpCluster", ptr %12, i32 0, i32 3
  %13 = load i64, ptr %rateEnd_13, align 8, !tbaa !13
  %rateBegin_14 = getelementptr inbounds nuw %"class.QuantLib::VegaBumpCluster", ptr %this1, i32 0, i32 2
  %14 = load i64, ptr %rateBegin_14, align 8, !tbaa !12
  %cmp15 = icmp ule i64 %13, %14
  br i1 %cmp15, label %if.then16, label %if.end17

if.then16:                                        ; preds = %if.end12
  store i1 false, ptr %retval, align 1
  br label %return

if.end17:                                         ; preds = %if.end12
  %15 = load ptr, ptr %comparee.addr, align 8, !tbaa !3
  %stepEnd_18 = getelementptr inbounds nuw %"class.QuantLib::VegaBumpCluster", ptr %15, i32 0, i32 5
  %16 = load i64, ptr %stepEnd_18, align 8, !tbaa !15
  %stepBegin_19 = getelementptr inbounds nuw %"class.QuantLib::VegaBumpCluster", ptr %this1, i32 0, i32 4
  %17 = load i64, ptr %stepBegin_19, align 8, !tbaa !14
  %cmp20 = icmp ule i64 %16, %17
  br i1 %cmp20, label %if.then21, label %if.end22

if.then21:                                        ; preds = %if.end17
  store i1 false, ptr %retval, align 1
  br label %return

if.end22:                                         ; preds = %if.end17
  store i1 true, ptr %retval, align 1
  br label %return

return:                                           ; preds = %if.end22, %if.then21, %if.then16, %if.then11, %if.then6, %if.then3, %if.then
  %18 = load i1, ptr %retval, align 1
  ret i1 %18
}