; Function Attrs: mustprogress nofree norecurse nosync nounwind willreturn memory(argmem: read) uwtable
define noundef zeroext i1 @_ZNK8QuantLib15VegaBumpCluster13doesIntersectERKS0_(ptr nocapture noundef nonnull readonly align 8 dereferenceable(48) %this, ptr nocapture noundef nonnull readonly align 8 dereferenceable(48) %comparee) local_unnamed_addr #8 align 2 {
entry:
  %factorEnd_ = getelementptr inbounds nuw i8, ptr %this, i64 8
  %0 = load i64, ptr %factorEnd_, align 8, !tbaa !8
  %1 = load i64, ptr %comparee, align 8, !tbaa !3
  %cmp.not = icmp ugt i64 %0, %1
  br i1 %cmp.not, label %if.end, label %return

if.end:                                           ; preds = %entry
  %rateEnd_ = getelementptr inbounds nuw i8, ptr %this, i64 24
  %2 = load i64, ptr %rateEnd_, align 8, !tbaa !10
  %rateBegin_ = getelementptr inbounds nuw i8, ptr %comparee, i64 16
  %3 = load i64, ptr %rateBegin_, align 8, !tbaa !9
  %cmp2.not = icmp ugt i64 %2, %3
  br i1 %cmp2.not, label %if.end4, label %return

if.end4:                                          ; preds = %if.end
  %stepEnd_ = getelementptr inbounds nuw i8, ptr %this, i64 40
  %4 = load i64, ptr %stepEnd_, align 8, !tbaa !12
  %stepBegin_ = getelementptr inbounds nuw i8, ptr %comparee, i64 32
  %5 = load i64, ptr %stepBegin_, align 8, !tbaa !11
  %cmp5.not = icmp ugt i64 %4, %5
  br i1 %cmp5.not, label %if.end7, label %return

if.end7:                                          ; preds = %if.end4
  %factorEnd_8 = getelementptr inbounds nuw i8, ptr %comparee, i64 8
  %6 = load i64, ptr %factorEnd_8, align 8, !tbaa !8
  %7 = load i64, ptr %this, align 8, !tbaa !3
  %cmp10.not = icmp ugt i64 %6, %7
  br i1 %cmp10.not, label %if.end12, label %return

if.end12:                                         ; preds = %if.end7
  %rateEnd_13 = getelementptr inbounds nuw i8, ptr %comparee, i64 24
  %8 = load i64, ptr %rateEnd_13, align 8, !tbaa !10
  %rateBegin_14 = getelementptr inbounds nuw i8, ptr %this, i64 16
  %9 = load i64, ptr %rateBegin_14, align 8, !tbaa !9
  %cmp15.not = icmp ugt i64 %8, %9
  br i1 %cmp15.not, label %if.end17, label %return

if.end17:                                         ; preds = %if.end12
  %stepEnd_18 = getelementptr inbounds nuw i8, ptr %comparee, i64 40
  %10 = load i64, ptr %stepEnd_18, align 8, !tbaa !12
  %stepBegin_19 = getelementptr inbounds nuw i8, ptr %this, i64 32
  %11 = load i64, ptr %stepBegin_19, align 8, !tbaa !11
  %cmp20.not = icmp ugt i64 %10, %11
  br label %return

return:                                           ; preds = %if.end17, %if.end12, %if.end7, %if.end4, %if.end, %entry
  %retval.0 = phi i1 [ false, %entry ], [ false, %if.end ], [ false, %if.end4 ], [ false, %if.end7 ], [ false, %if.end12 ], [ %cmp20.not, %if.end17 ]
  ret i1 %retval.0
}